target datalayout = "e-m:e-p270:32:32-p271:32:32-p272:64:64-i64:64-i128:128-f80:128-n8:16:32:64-S128"
target triple = "x86_64-pc-linux-gnu"

%struct.buf_chunk = type { ptr, i64, i64, i64, %union.anon }
%union.anon = type { ptr }
%struct.bufq = type { ptr, ptr, ptr, ptr, i64, i64, i64, i32 }

; Function Attrs: nounwind uwtable
define internal i64 @chunk_slurpn(ptr noundef %0, i64 noundef %1, ptr noundef %2, ptr noundef %3, ptr noundef %4) #0 {
  %6 = alloca i64, align 8
  %7 = alloca ptr, align 8
  %8 = alloca i64, align 8
  %9 = alloca ptr, align 8
  %10 = alloca ptr, align 8
  %11 = alloca ptr, align 8
  %12 = alloca ptr, align 8
  %13 = alloca i64, align 8
  %14 = alloca i64, align 8
  store ptr %0, ptr %7, align 8
  store i64 %1, ptr %8, align 8
  store ptr %2, ptr %9, align 8
  store ptr %3, ptr %10, align 8
  store ptr %4, ptr %11, align 8
  %15 = load ptr, ptr %7, align 8
  %16 = getelementptr inbounds %struct.buf_chunk, ptr %15, i32 0, i32 4
  %17 = load ptr, ptr %7, align 8
  %18 = getelementptr inbounds %struct.buf_chunk, ptr %17, i32 0, i32 3
  %19 = load i64, ptr %18, align 8
  %20 = getelementptr inbounds [1 x i8], ptr %16, i64 0, i64 %19
  store ptr %20, ptr %12, align 8
  %21 = load ptr, ptr %7, align 8
  %22 = getelementptr inbounds %struct.buf_chunk, ptr %21, i32 0, i32 1
  %23 = load i64, ptr %22, align 8
  %24 = load ptr, ptr %7, align 8
  %25 = getelementptr inbounds %struct.buf_chunk, ptr %24, i32 0, i32 3
  %26 = load i64, ptr %25, align 8
  %27 = sub i64 %23, %26
  store i64 %27, ptr %13, align 8
  br label %28

28:                                               ; preds = %5
  br label %29

29:                                               ; preds = %28
  %30 = load i64, ptr %13, align 8
  %31 = icmp ne i64 %30, 0
  br i1 %31, label %34, label %32

32:                                               ; preds = %29
  %33 = load ptr, ptr %11, align 8
  store i32 81, ptr %33, align 4
  store i64 -1, ptr %6, align 8
  br label %62

34:                                               ; preds = %29
  %35 = load i64, ptr %8, align 8
  %36 = icmp ne i64 %35, 0
  br i1 %36, label %37, label %43

37:                                               ; preds = %34
  %38 = load i64, ptr %13, align 8
  %39 = load i64, ptr %8, align 8
  %40 = icmp ugt i64 %38, %39
  br i1 %40, label %41, label %43

41:                                               ; preds = %37
  %42 = load i64, ptr %8, align 8
  store i64 %42, ptr %13, align 8
  br label %43

43:                                               ; preds = %41, %37, %34
  %44 = load ptr, ptr %9, align 8
  %45 = load ptr, ptr %10, align 8
  %46 = load ptr, ptr %12, align 8
  %47 = load i64, ptr %13, align 8
  %48 = load ptr, ptr %11, align 8
  %49 = call i64 %44(ptr noundef %45, ptr noundef %46, i64 noundef %47, ptr noundef %48)
  store i64 %49, ptr %14, align 8
  %50 = load i64, ptr %14, align 8
  %51 = icmp sgt i64 %50, 0
  br i1 %51, label %52, label %60

52:                                               ; preds = %43
  br label %53

53:                                               ; preds = %52
  br label %54

54:                                               ; preds = %53
  %55 = load i64, ptr %14, align 8
  %56 = load ptr, ptr %7, align 8
  %57 = getelementptr inbounds %struct.buf_chunk, ptr %56, i32 0, i32 3
  %58 = load i64, ptr %57, align 8
  %59 = add i64 %58, %55
  store i64 %59, ptr %57, align 8
  br label %60

60:                                               ; preds = %54, %43
  %61 = load i64, ptr %14, align 8
  store i64 %61, ptr %6, align 8
  br label %62

62:                                               ; preds = %60, %32
  %63 = load i64, ptr %6, align 8
  ret i64 %63
}

; Function Attrs: nounwind uwtable
define internal zeroext i1 @chunk_is_full(ptr noundef %0) #0 {
  %2 = alloca ptr, align 8
  store ptr %0, ptr %2, align 8
  %3 = load ptr, ptr %2, align 8
  %4 = getelementptr inbounds %struct.buf_chunk, ptr %3, i32 0, i32 3
  %5 = load i64, ptr %4, align 8
  %6 = load ptr, ptr %2, align 8
  %7 = getelementptr inbounds %struct.buf_chunk, ptr %6, i32 0, i32 1
  %8 = load i64, ptr %7, align 8
  %9 = icmp uge i64 %5, %8
  ret i1 %9
}

; Function Attrs: nounwind uwtable
define dso_local i64 @Curl_bufq_sipn(ptr noundef %0, i64 noundef %1, ptr noundef %2, ptr noundef %3, ptr noundef %4) #0 {
  %6 = alloca i64, align 8
  %7 = alloca ptr, align 8
  %8 = alloca i64, align 8
  %9 = alloca ptr, align 8
  %10 = alloca ptr, align 8
  %11 = alloca ptr, align 8
  %12 = alloca ptr, align 8
  %13 = alloca i64, align 8
  store ptr %0, ptr %7, align 8
  store i64 %1, ptr %8, align 8
  store ptr %2, ptr %9, align 8
  store ptr %3, ptr %10, align 8
  store ptr %4, ptr %11, align 8
  store ptr null, ptr %12, align 8
  %14 = load ptr, ptr %11, align 8
  store i32 81, ptr %14, align 4
  %15 = load ptr, ptr %7, align 8
  %16 = call ptr @get_non_full_tail(ptr noundef %15)
  store ptr %16, ptr %12, align 8
  %17 = load ptr, ptr %12, align 8
  %18 = icmp ne ptr %17, null
  br i1 %18, label %31, label %19

19:                                               ; preds = %5
  %20 = load ptr, ptr %7, align 8
  %21 = getelementptr inbounds %struct.bufq, ptr %20, i32 0, i32 4
  %22 = load i64, ptr %21, align 8
  %23 = load ptr, ptr %7, align 8
  %24 = getelementptr inbounds %struct.bufq, ptr %23, i32 0, i32 5
  %25 = load i64, ptr %24, align 8
  %26 = icmp ult i64 %22, %25
  br i1 %26, label %27, label %29

27:                                               ; preds = %19
  %28 = load ptr, ptr %11, align 8
  store i32 27, ptr %28, align 4
  store i64 -1, ptr %6, align 8
  br label %49

29:                                               ; preds = %19
  %30 = load ptr, ptr %11, align 8
  store i32 81, ptr %30, align 4
  store i64 -1, ptr %6, align 8
  br label %49

31:                                               ; preds = %5
  %32 = load ptr, ptr %12, align 8
  %33 = load i64, ptr %8, align 8
  %34 = load ptr, ptr %9, align 8
  %35 = load ptr, ptr %10, align 8
  %36 = load ptr, ptr %11, align 8
  %37 = call i64 @chunk_slurpn(ptr noundef %32, i64 noundef %33, ptr noundef %34, ptr noundef %35, ptr noundef %36)
  store i64 %37, ptr %13, align 8
  %38 = load i64, ptr %13, align 8
  %39 = icmp slt i64 %38, 0
  br i1 %39, label %40, label %41

40:                                               ; preds = %31
  store i64 -1, ptr %6, align 8
  br label %49

41:                                               ; preds = %31
  %42 = load i64, ptr %13, align 8
  %43 = icmp eq i64 %42, 0
  br i1 %43, label %44, label %46

44:                                               ; preds = %41
  %45 = load ptr, ptr %11, align 8
  store i32 0, ptr %45, align 4
  br label %46

46:                                               ; preds = %44, %41
  br label %47

47:                                               ; preds = %46
  %48 = load i64, ptr %13, align 8
  store i64 %48, ptr %6, align 8
  br label %49

49:                                               ; preds = %47, %40, %29, %27
  %50 = load i64, ptr %6, align 8
  ret i64 %50
}

; Function Attrs: nounwind uwtable
define internal i64 @bufq_slurpn(ptr noundef %0, i64 noundef %1, ptr noundef %2, ptr noundef %3, ptr noundef %4) #0 {
  %6 = alloca ptr, align 8
  %7 = alloca i64, align 8
  %8 = alloca ptr, align 8
  %9 = alloca ptr, align 8
  %10 = alloca ptr, align 8
  %11 = alloca i64, align 8
  %12 = alloca i64, align 8
  store ptr %0, ptr %6, align 8
  store i64 %1, ptr %7, align 8
  store ptr %2, ptr %8, align 8
  store ptr %3, ptr %9, align 8
  store ptr %4, ptr %10, align 8
  store i64 0, ptr %11, align 8
  %13 = load ptr, ptr %10, align 8
  store i32 81, ptr %13, align 4
  br label %14

14:                                               ; preds = %67, %5
  %15 = load ptr, ptr %6, align 8
  %16 = load i64, ptr %7, align 8
  %17 = load ptr, ptr %8, align 8
  %18 = load ptr, ptr %9, align 8
  %19 = load ptr, ptr %10, align 8
  %20 = call i64 @Curl_bufq_sipn(ptr noundef %15, i64 noundef %16, ptr noundef %17, ptr noundef %18, ptr noundef %19)
  store i64 %20, ptr %12, align 8
  %21 = load i64, ptr %12, align 8
  %22 = icmp slt i64 %21, 0
  br i1 %22, label %23, label %34

23:                                               ; preds = %14
  %24 = load i64, ptr %11, align 8
  %25 = icmp ne i64 %24, 0
  br i1 %25, label %26, label %30

26:                                               ; preds = %23
  %27 = load ptr, ptr %10, align 8
  %28 = load i32, ptr %27, align 4
  %29 = icmp ne i32 %28, 81
  br i1 %29, label %30, label %31

30:                                               ; preds = %26, %23
  store i64 -1, ptr %11, align 8
  br label %33

31:                                               ; preds = %26
  %32 = load ptr, ptr %10, align 8
  store i32 0, ptr %32, align 4
  br label %33

33:                                               ; preds = %31, %30
  br label %68

34:                                               ; preds = %14
  %35 = load i64, ptr %12, align 8
  %36 = icmp eq i64 %35, 0
  br i1 %36, label %37, label %39

37:                                               ; preds = %34
  %38 = load ptr, ptr %10, align 8
  store i32 0, ptr %38, align 4
  br label %68

39:                                               ; preds = %34
  br label %40

40:                                               ; preds = %39
  %41 = load i64, ptr %12, align 8
  %42 = load i64, ptr %11, align 8
  %43 = add i64 %42, %41
  store i64 %43, ptr %11, align 8
  %44 = load i64, ptr %7, align 8
  %45 = icmp ne i64 %44, 0
  br i1 %45, label %46, label %56

46:                                               ; preds = %40
  br label %47

47:                                               ; preds = %46
  br label %48

48:                                               ; preds = %47
  %49 = load i64, ptr %12, align 8
  %50 = load i64, ptr %7, align 8
  %51 = sub i64 %50, %49
  store i64 %51, ptr %7, align 8
  %52 = load i64, ptr %7, align 8
  %53 = icmp ne i64 %52, 0
  br i1 %53, label %55, label %54

54:                                               ; preds = %48
  br label %68

55:                                               ; preds = %48
  br label %56

56:                                               ; preds = %55, %40
  %57 = load ptr, ptr %6, align 8
  %58 = getelementptr inbounds %struct.bufq, ptr %57, i32 0, i32 1
  %59 = load ptr, ptr %58, align 8
  %60 = icmp ne ptr %59, null
  br i1 %60, label %61, label %67

61:                                               ; preds = %56
  %62 = load ptr, ptr %6, align 8
  %63 = getelementptr inbounds %struct.bufq, ptr %62, i32 0, i32 1
  %64 = load ptr, ptr %63, align 8
  %65 = call zeroext i1 @chunk_is_full(ptr noundef %64)
  br i1 %65, label %67, label %66

66:                                               ; preds = %61
  br label %68

67:                                               ; preds = %61, %56
  br label %14

68:                                               ; preds = %66, %54, %37, %33
  %69 = load i64, ptr %11, align 8
  ret i64 %69
}

; Function Attrs: nounwind uwtable
define dso_local i64 @Curl_bufq_slurp(ptr noundef %0, ptr noundef %1, ptr noundef %2, ptr noundef %3) #0 {
  %5 = alloca ptr, align 8
  %6 = alloca ptr, align 8
  %7 = alloca ptr, align 8
  %8 = alloca ptr, align 8
  store ptr %0, ptr %5, align 8
  store ptr %1, ptr %6, align 8
  store ptr %2, ptr %7, align 8
  store ptr %3, ptr %8, align 8
  %9 = load ptr, ptr %5, align 8
  %10 = load ptr, ptr %6, align 8
  %11 = load ptr, ptr %7, align 8
  %12 = load ptr, ptr %8, align 8
  %13 = call i64 @bufq_slurpn(ptr noundef %9, i64 noundef 0, ptr noundef %10, ptr noundef %11, ptr noundef %12)
  ret i64 %13
}