; Function Attrs: nounwind uwtable
define dso_local i64 @Curl_bufq_slurp(ptr noundef captures(none) %0, ptr noundef readonly captures(none) %1, ptr noundef %2, ptr noundef initializes((0, 4)) %3) local_unnamed_addr #2 {
  store i32 81, ptr %3, align 4
  %5 = tail call fastcc ptr @get_non_full_tail(ptr noundef %0)
  %.not.i38.i = icmp eq ptr %5, null
  br i1 %.not.i38.i, label %._crit_edge.i, label %.lr.ph.i

.lr.ph.i:                                         ; preds = %4
  %6 = getelementptr inbounds nuw i8, ptr %0, i64 8
  br label %12

._crit_edge.i:                                    ; preds = %36, %4
  %.020.lcssa.i = phi i64 [ 0, %4 ], [ %31, %36 ]
  %7 = getelementptr inbounds nuw i8, ptr %0, i64 32
  %8 = load i64, ptr %7, align 8
  %9 = getelementptr inbounds nuw i8, ptr %0, i64 40
  %10 = load i64, ptr %9, align 8
  %11 = icmp ult i64 %8, %10
  %..i = select i1 %11, i32 27, i32 81
  br label %.sink.split.i

12:                                               ; preds = %36, %.lr.ph.i
  %13 = phi ptr [ %5, %.lr.ph.i ], [ %37, %36 ]
  %.02039.i = phi i64 [ 0, %.lr.ph.i ], [ %31, %36 ]
  %14 = getelementptr inbounds nuw i8, ptr %13, i64 24
  %15 = load i64, ptr %14, align 8
  %16 = getelementptr inbounds nuw i8, ptr %13, i64 8
  %17 = load i64, ptr %16, align 8
  %.not.i.i.i = icmp eq i64 %17, %15
  br i1 %.not.i.i.i, label %.sink.split.i, label %18

18:                                               ; preds = %12
  %19 = sub i64 %17, %15
  %20 = getelementptr inbounds nuw i8, ptr %13, i64 32
  %21 = getelementptr inbounds [1 x i8], ptr %20, i64 0, i64 %15
  %22 = tail call i64 %1(ptr noundef %2, ptr noundef nonnull %21, i64 noundef %19, ptr noundef nonnull %3) #11
  %23 = icmp sgt i64 %22, 0
  br i1 %23, label %28, label %chunk_slurpn.exit.i.i

chunk_slurpn.exit.i.i:                            ; preds = %18
  %24 = icmp slt i64 %22, 0
  br i1 %24, label %25, label %.loopexit.sink.split.i

.sink.split.i:                                    ; preds = %12, %._crit_edge.i
  %.sink.i = phi i32 [ %..i, %._crit_edge.i ], [ 81, %12 ]
  %.02035.ph.i = phi i64 [ %.020.lcssa.i, %._crit_edge.i ], [ %.02039.i, %12 ]
  store i32 %.sink.i, ptr %3, align 4
  br label %25

25:                                               ; preds = %.sink.split.i, %chunk_slurpn.exit.i.i
  %.02035.i = phi i64 [ %.02039.i, %chunk_slurpn.exit.i.i ], [ %.02035.ph.i, %.sink.split.i ]
  %.not25.i = icmp eq i64 %.02035.i, 0
  br i1 %.not25.i, label %bufq_slurpn.exit, label %26

26:                                               ; preds = %25
  %27 = load i32, ptr %3, align 4
  %.not26.i = icmp eq i32 %27, 81
  br i1 %.not26.i, label %.loopexit.sink.split.i, label %bufq_slurpn.exit

28:                                               ; preds = %18
  %29 = load i64, ptr %14, align 8
  %30 = add i64 %29, %22
  store i64 %30, ptr %14, align 8
  %31 = add i64 %22, %.02039.i
  %32 = load ptr, ptr %6, align 8
  %.not.i = icmp eq ptr %32, null
  br i1 %.not.i, label %36, label %33

33:                                               ; preds = %28
  %34 = getelementptr i8, ptr %32, i64 8
  %.val.i = load i64, ptr %34, align 8
  %35 = getelementptr i8, ptr %32, i64 24
  %.val27.i = load i64, ptr %35, align 8
  %.not31.i = icmp ult i64 %.val27.i, %.val.i
  br i1 %.not31.i, label %bufq_slurpn.exit, label %36

36:                                               ; preds = %33, %28
  store i32 81, ptr %3, align 4
  %37 = tail call fastcc ptr @get_non_full_tail(ptr noundef nonnull %0)
  %.not.i.i = icmp eq ptr %37, null
  br i1 %.not.i.i, label %._crit_edge.i, label %12

.loopexit.sink.split.i:                           ; preds = %26, %chunk_slurpn.exit.i.i
  %.121.ph.i = phi i64 [ %.02035.i, %26 ], [ %.02039.i, %chunk_slurpn.exit.i.i ]
  store i32 0, ptr %3, align 4
  br label %bufq_slurpn.exit

bufq_slurpn.exit:                                 ; preds = %33, %25, %26, %.loopexit.sink.split.i
  %.121.i = phi i64 [ -1, %26 ], [ -1, %25 ], [ %.121.ph.i, %.loopexit.sink.split.i ], [ %31, %33 ]
  ret i64 %.121.i
}